target datalayout = "e-m:e-p270:32:32-p271:32:32-p272:64:64-i64:64-i128:128-f80:128-n8:16:32:64-S128"
target triple = "x86_64-pc-linux-gnu"

%struct.config = type { %struct.cliConnInfo, %struct.timeval, ptr, i32, %struct.cliSSLconfig, i64, i64, i32, i32, i32, i32, i32, i32, i32, i32, i32, i32, i64, i32, i32, i32, i32, i32, i32, i32, i32, i32, i32, i32, i32, i32, ptr, ptr, i32, i32, i64, i32, i32, i64, i64, i32, i32, ptr, i32, i32, i32, i32, ptr, ptr, [128 x i8], ptr, i32, i32, i32, i32, i32, ptr, i32, i32, %struct.clusterManagerCommand, i32, i32, i32, i32, i32, i32, ptr, ptr, ptr, i32, i32 }
%struct.cliConnInfo = type { ptr, i32, i32, ptr, ptr }
%struct.timeval = type { i64, i64 }
%struct.cliSSLconfig = type { ptr, ptr, ptr, i32, ptr, ptr, ptr, ptr }
%struct.clusterManagerCommand = type { ptr, i32, ptr, ptr, i32, i32, ptr, ptr, ptr, i32, ptr, i32, i32, i32, float, ptr, ptr, ptr, i32 }
%struct.redisReply = type { i32, i64, double, i64, ptr, [4 x i8], i64, ptr }

@stderr = external global ptr, align 8
@config = internal global %struct.config zeroinitializer, align 8
@context = internal global ptr null, align 8
@.str.81 = private unnamed_addr constant [12 x i8] c"\0AI/O error\0A\00", align 1
@.str.600 = private unnamed_addr constant [8 x i8] c"HELLO 3\00", align 1
@.str.601 = private unnamed_addr constant [20 x i8] c"HELLO 3 failed: %s\0A\00", align 1
@.str.602 = private unnamed_addr constant [8 x i8] c"version\00", align 1

; Function Attrs: nounwind uwtable
define internal i32 @cliSwitchProto() #0 {
  %1 = alloca i32, align 4
  %2 = alloca ptr, align 8
  %3 = alloca i32, align 4
  %4 = alloca i32, align 4
  %5 = alloca i64, align 8
  %6 = alloca ptr, align 8
  call void @llvm.lifetime.start.p0(i64 8, ptr %2) #15
  %7 = load i32, ptr getelementptr inbounds nuw (%struct.config, ptr @config, i32 0, i32 62), align 8, !tbaa !309
  %8 = icmp ne i32 %7, 0
  br i1 %8, label %9, label %12

9:                                                ; preds = %0
  %10 = load i32, ptr getelementptr inbounds nuw (%struct.config, ptr @config, i32 0, i32 61), align 4, !tbaa !313
  %11 = icmp ne i32 %10, 0
  br i1 %11, label %12, label %13

12:                                               ; preds = %9, %0
  store i32 0, ptr %1, align 4
  store i32 1, ptr %3, align 4
  br label %79

13:                                               ; preds = %9
  %14 = load ptr, ptr @context, align 8, !tbaa !180
  %15 = call ptr (ptr, ptr, ...) @redisCommand(ptr noundef %14, ptr noundef @.str.600)
  store ptr %15, ptr %2, align 8, !tbaa !46
  %16 = load ptr, ptr %2, align 8, !tbaa !46
  %17 = icmp eq ptr %16, null
  br i1 %17, label %18, label %21

18:                                               ; preds = %13
  %19 = load ptr, ptr @stderr, align 8, !tbaa !12
  %20 = call i32 (ptr, ptr, ...) @fprintf(ptr noundef %19, ptr noundef @.str.81) #15
  store i32 -1, ptr %1, align 4
  store i32 1, ptr %3, align 4
  br label %79

21:                                               ; preds = %13
  call void @llvm.lifetime.start.p0(i64 4, ptr %4) #15
  store i32 0, ptr %4, align 4, !tbaa !10
  %22 = load ptr, ptr %2, align 8, !tbaa !46
  %23 = getelementptr inbounds nuw %struct.redisReply, ptr %22, i32 0, i32 0
  %24 = load i32, ptr %23, align 8, !tbaa !68
  %25 = icmp eq i32 %24, 6
  br i1 %25, label %26, label %41

26:                                               ; preds = %21
  %27 = load ptr, ptr @stderr, align 8, !tbaa !12
  %28 = load ptr, ptr %2, align 8, !tbaa !46
  %29 = getelementptr inbounds nuw %struct.redisReply, ptr %28, i32 0, i32 4
  %30 = load ptr, ptr %29, align 8, !tbaa !54
  %31 = call i32 (ptr, ptr, ...) @fprintf(ptr noundef %27, ptr noundef @.str.601, ptr noundef %30) #15
  %32 = load i32, ptr getelementptr inbounds nuw (%struct.config, ptr @config, i32 0, i32 62), align 8, !tbaa !309
  %33 = icmp eq i32 %32, 1
  br i1 %33, label %34, label %35

34:                                               ; preds = %26
  store i32 -1, ptr %4, align 4, !tbaa !10
  br label %40

35:                                               ; preds = %26
  %36 = load i32, ptr getelementptr inbounds nuw (%struct.config, ptr @config, i32 0, i32 62), align 8, !tbaa !309
  %37 = icmp eq i32 %36, 2
  br i1 %37, label %38, label %39

38:                                               ; preds = %35
  store i32 0, ptr %4, align 4, !tbaa !10
  br label %39

39:                                               ; preds = %38, %35
  br label %40

40:                                               ; preds = %39, %34
  br label %41

41:                                               ; preds = %40, %21
  call void @llvm.lifetime.start.p0(i64 8, ptr %5) #15
  store i64 0, ptr %5, align 8, !tbaa !27
  br label %42

42:                                               ; preds = %73, %41
  %43 = load i64, ptr %5, align 8, !tbaa !27
  %44 = load ptr, ptr %2, align 8, !tbaa !46
  %45 = getelementptr inbounds nuw %struct.redisReply, ptr %44, i32 0, i32 6
  %46 = load i64, ptr %45, align 8, !tbaa !48
  %47 = icmp ult i64 %43, %46
  br i1 %47, label %49, label %48

48:                                               ; preds = %42
  store i32 2, ptr %3, align 4
  call void @llvm.lifetime.end.p0(i64 8, ptr %5) #15
  br label %76

49:                                               ; preds = %42
  call void @llvm.lifetime.start.p0(i64 8, ptr %6) #15
  %50 = load ptr, ptr %2, align 8, !tbaa !46
  %51 = getelementptr inbounds nuw %struct.redisReply, ptr %50, i32 0, i32 7
  %52 = load ptr, ptr %51, align 8, !tbaa !53
  %53 = load i64, ptr %5, align 8, !tbaa !27
  %54 = getelementptr inbounds nuw ptr, ptr %52, i64 %53
  %55 = load ptr, ptr %54, align 8, !tbaa !46
  %56 = getelementptr inbounds nuw %struct.redisReply, ptr %55, i32 0, i32 4
  %57 = load ptr, ptr %56, align 8, !tbaa !54
  store ptr %57, ptr %6, align 8, !tbaa !5
  %58 = load ptr, ptr %6, align 8, !tbaa !5
  %59 = call i32 @strcmp(ptr noundef %58, ptr noundef @.str.602) #16
  %60 = icmp ne i32 %59, 0
  br i1 %60, label %72, label %61

61:                                               ; preds = %49
  %62 = load ptr, ptr %2, align 8, !tbaa !46
  %63 = getelementptr inbounds nuw %struct.redisReply, ptr %62, i32 0, i32 7
  %64 = load ptr, ptr %63, align 8, !tbaa !53
  %65 = load i64, ptr %5, align 8, !tbaa !27
  %66 = add i64 %65, 1
  %67 = getelementptr inbounds nuw ptr, ptr %64, i64 %66
  %68 = load ptr, ptr %67, align 8, !tbaa !46
  %69 = getelementptr inbounds nuw %struct.redisReply, ptr %68, i32 0, i32 4
  %70 = load ptr, ptr %69, align 8, !tbaa !54
  %71 = call ptr @hi_sdsnew(ptr noundef %70)
  store ptr %71, ptr getelementptr inbounds nuw (%struct.config, ptr @config, i32 0, i32 66), align 8, !tbaa !292
  br label %72

72:                                               ; preds = %61, %49
  call void @llvm.lifetime.end.p0(i64 8, ptr %6) #15
  br label %73

73:                                               ; preds = %72
  %74 = load i64, ptr %5, align 8, !tbaa !27
  %75 = add i64 %74, 2
  store i64 %75, ptr %5, align 8, !tbaa !27
  br label %42, !llvm.loop !552

76:                                               ; preds = %48
  %77 = load ptr, ptr %2, align 8, !tbaa !46
  call void @freeReplyObject(ptr noundef %77)
  store i32 1, ptr getelementptr inbounds nuw (%struct.config, ptr @config, i32 0, i32 63), align 4, !tbaa !69
  %78 = load i32, ptr %4, align 4, !tbaa !10
  store i32 %78, ptr %1, align 4
  store i32 1, ptr %3, align 4
  call void @llvm.lifetime.end.p0(i64 4, ptr %4) #15
  br label %79

79:                                               ; preds = %76, %18, %12
  call void @llvm.lifetime.end.p0(i64 8, ptr %2) #15
  %80 = load i32, ptr %1, align 4
  ret i32 %80
}