; Function Attrs: nounwind uwtable
define internal fastcc range(i32 -1, 1) i32 @cliSwitchProto() unnamed_addr #0 {
  %1 = load i32, ptr getelementptr inbounds nuw (i8, ptr @config, i64 664), align 8, !tbaa !261
  %2 = icmp eq i32 %1, 0
  %3 = load i32, ptr getelementptr inbounds nuw (i8, ptr @config, i64 660), align 4
  %4 = icmp ne i32 %3, 0
  %or.cond = select i1 %2, i1 true, i1 %4
  br i1 %or.cond, label %44, label %5

5:                                                ; preds = %0
  %6 = load ptr, ptr @context, align 8, !tbaa !205
  %7 = tail call ptr (ptr, ptr, ...) @redisCommand(ptr noundef %6, ptr noundef nonnull @.str.600) #33
  %8 = icmp eq ptr %7, null
  br i1 %8, label %9, label %12

9:                                                ; preds = %5
  %10 = load ptr, ptr @stderr, align 8, !tbaa !5
  %11 = tail call i64 @fwrite(ptr nonnull @.str.81, i64 11, i64 1, ptr %10) #34
  br label %44

12:                                               ; preds = %5
  %13 = load i32, ptr %7, align 8, !tbaa !56
  %14 = icmp eq i32 %13, 6
  br i1 %14, label %15, label %21

15:                                               ; preds = %12
  %16 = load ptr, ptr @stderr, align 8, !tbaa !5
  %17 = getelementptr inbounds nuw i8, ptr %7, i64 32
  %18 = load ptr, ptr %17, align 8, !tbaa !36
  %19 = tail call i32 (ptr, ptr, ...) @fprintf(ptr noundef %16, ptr noundef nonnull @.str.601, ptr noundef %18) #39
  %20 = load i32, ptr getelementptr inbounds nuw (i8, ptr @config, i64 664), align 8, !tbaa !261
  %switch.selectcmp18 = icmp eq i32 %20, 1
  %switch.select19 = sext i1 %switch.selectcmp18 to i32
  br label %21

21:                                               ; preds = %15, %12
  %.015 = phi i32 [ 0, %12 ], [ %switch.select19, %15 ]
  %22 = getelementptr inbounds nuw i8, ptr %7, i64 48
  %23 = load i64, ptr %22, align 8, !tbaa !28
  %.not21 = icmp eq i64 %23, 0
  br i1 %.not21, label %._crit_edge, label %.lr.ph

.lr.ph:                                           ; preds = %21
  %24 = getelementptr inbounds nuw i8, ptr %7, i64 56
  br label %25

._crit_edge:                                      ; preds = %40, %21
  tail call void @freeReplyObject(ptr noundef nonnull %7) #33
  store i32 1, ptr getelementptr inbounds nuw (i8, ptr @config, i64 668), align 4, !tbaa !57
  br label %44

25:                                               ; preds = %.lr.ph, %40
  %26 = phi i64 [ %23, %.lr.ph ], [ %41, %40 ]
  %.01420 = phi i64 [ 0, %.lr.ph ], [ %42, %40 ]
  %27 = load ptr, ptr %24, align 8, !tbaa !33
  %28 = getelementptr inbounds nuw ptr, ptr %27, i64 %.01420
  %29 = load ptr, ptr %28, align 8, !tbaa !34
  %30 = getelementptr inbounds nuw i8, ptr %29, i64 32
  %31 = load ptr, ptr %30, align 8, !tbaa !36
  %32 = tail call i32 @strcmp(ptr noundef nonnull dereferenceable(1) %31, ptr noundef nonnull dereferenceable(8) @.str.602) #35
  %.not = icmp eq i32 %32, 0
  br i1 %.not, label %33, label %40

33:                                               ; preds = %25
  %34 = or disjoint i64 %.01420, 1
  %35 = getelementptr inbounds nuw ptr, ptr %27, i64 %34
  %36 = load ptr, ptr %35, align 8, !tbaa !34
  %37 = getelementptr inbounds nuw i8, ptr %36, i64 32
  %38 = load ptr, ptr %37, align 8, !tbaa !36
  %39 = tail call ptr @hi_sdsnew(ptr noundef %38) #33
  store ptr %39, ptr getelementptr inbounds nuw (i8, ptr @config, i64 680), align 8, !tbaa !246
  %.pre = load i64, ptr %22, align 8, !tbaa !28
  br label %40

40:                                               ; preds = %33, %25
  %41 = phi i64 [ %.pre, %33 ], [ %26, %25 ]
  %42 = add i64 %.01420, 2
  %43 = icmp ult i64 %42, %41
  br i1 %43, label %25, label %._crit_edge, !llvm.loop !512

44:                                               ; preds = %0, %._crit_edge, %9
  %.0 = phi i32 [ -1, %9 ], [ %.015, %._crit_edge ], [ 0, %0 ]
  ret i32 %.0
}